(dp1
VAMERSTD
p2
(lp3
VC10
p4
aVC111E
p5
aVC112F
p6
aVC174
p7
asVANTHRO
p8
(lp9
V129A
p10
asVAFRICAM
p11
(lp12
V4A
p13
aV5A
p14
aV5B
p15
aV39G
p16
aV100
p17
aV142A
p18
aV142AC
p19
aV150B
p20
aVN150B
p21
aV152F
p22
aV153C
p23
aV155
p24
aV156AC
p25
aV158A
p26
aV158B
p27
aV159
p28
as.